target datalayout = "e-m:e-p270:32:32-p271:32:32-p272:64:64-i64:64-i128:128-f80:128-n8:16:32:64-S128"
target triple = "x86_64-pc-linux-gnu"

%struct.UCPTrie = type { ptr, %union.UCPTrieData, i32, i32, i32, i16, i8, i8, i32, i16, i16, i32, i32 }
%union.UCPTrieData = type { ptr }

; Function Attrs: inlinehint mustprogress nounwind uwtable
define internal noundef i32 @_ZN12_GLOBAL__N_18getValueE11UCPTrieData17UCPTrieValueWidthi(ptr %0, i32 noundef %1, i32 noundef %2) #1 {
  %4 = alloca i32, align 4
  %5 = alloca %union.UCPTrieData, align 8
  %6 = alloca i32, align 4
  %7 = alloca i32, align 4
  %8 = getelementptr inbounds nuw %union.UCPTrieData, ptr %5, i32 0, i32 0
  store ptr %0, ptr %8, align 8
  store i32 %1, ptr %6, align 4, !tbaa !7
  store i32 %2, ptr %7, align 4, !tbaa !11
  %9 = load i32, ptr %6, align 4, !tbaa !7
  switch i32 %9, label %30 [
    i32 0, label %10
    i32 1, label %17
    i32 2, label %23
  ]

10:                                               ; preds = %3
  %11 = load ptr, ptr %5, align 8, !tbaa !42
  %12 = load i32, ptr %7, align 4, !tbaa !11
  %13 = sext i32 %12 to i64
  %14 = getelementptr inbounds i16, ptr %11, i64 %13
  %15 = load i16, ptr %14, align 2, !tbaa !43
  %16 = zext i16 %15 to i32
  store i32 %16, ptr %4, align 4
  br label %31

17:                                               ; preds = %3
  %18 = load ptr, ptr %5, align 8, !tbaa !42
  %19 = load i32, ptr %7, align 4, !tbaa !11
  %20 = sext i32 %19 to i64
  %21 = getelementptr inbounds i32, ptr %18, i64 %20
  %22 = load i32, ptr %21, align 4, !tbaa !11
  store i32 %22, ptr %4, align 4
  br label %31

23:                                               ; preds = %3
  %24 = load ptr, ptr %5, align 8, !tbaa !42
  %25 = load i32, ptr %7, align 4, !tbaa !11
  %26 = sext i32 %25 to i64
  %27 = getelementptr inbounds i8, ptr %24, i64 %26
  %28 = load i8, ptr %27, align 1, !tbaa !42
  %29 = zext i8 %28 to i32
  store i32 %29, ptr %4, align 4
  br label %31

30:                                               ; preds = %3
  store i32 -1, ptr %4, align 4
  br label %31

31:                                               ; preds = %30, %23, %17, %10
  %32 = load i32, ptr %4, align 4
  ret i32 %32
}

; Function Attrs: mustprogress nounwind uwtable
define i32 @ucptrie_internalSmallIndex_77(ptr noundef %0, i32 noundef %1) #7 {
  %3 = alloca ptr, align 8
  %4 = alloca i32, align 4
  %5 = alloca i32, align 4
  %6 = alloca i32, align 4
  %7 = alloca i32, align 4
  %8 = alloca i32, align 4
  store ptr %0, ptr %3, align 8, !tbaa !38
  store i32 %1, ptr %4, align 4, !tbaa !11
  call void @llvm.lifetime.start.p0(i64 4, ptr %5) #9
  %9 = load i32, ptr %4, align 4, !tbaa !11
  %10 = ashr i32 %9, 14
  store i32 %10, ptr %5, align 4, !tbaa !11
  %11 = load ptr, ptr %3, align 8, !tbaa !38
  %12 = getelementptr inbounds nuw %struct.UCPTrie, ptr %11, i32 0, i32 6
  %13 = load i8, ptr %12, align 2, !tbaa !36
  %14 = sext i8 %13 to i32
  %15 = icmp eq i32 %14, 0
  br i1 %15, label %16, label %19

16:                                               ; preds = %2
  %17 = load i32, ptr %5, align 4, !tbaa !11
  %18 = add nsw i32 %17, 1020
  store i32 %18, ptr %5, align 4, !tbaa !11
  br label %22

19:                                               ; preds = %2
  %20 = load i32, ptr %5, align 4, !tbaa !11
  %21 = add nsw i32 %20, 64
  store i32 %21, ptr %5, align 4, !tbaa !11
  br label %22

22:                                               ; preds = %19, %16
  call void @llvm.lifetime.start.p0(i64 4, ptr %6) #9
  %23 = load ptr, ptr %3, align 8, !tbaa !38
  %24 = getelementptr inbounds nuw %struct.UCPTrie, ptr %23, i32 0, i32 0
  %25 = load ptr, ptr %24, align 8, !tbaa !41
  %26 = load ptr, ptr %3, align 8, !tbaa !38
  %27 = getelementptr inbounds nuw %struct.UCPTrie, ptr %26, i32 0, i32 0
  %28 = load ptr, ptr %27, align 8, !tbaa !41
  %29 = load i32, ptr %5, align 4, !tbaa !11
  %30 = sext i32 %29 to i64
  %31 = getelementptr inbounds i16, ptr %28, i64 %30
  %32 = load i16, ptr %31, align 2, !tbaa !43
  %33 = zext i16 %32 to i32
  %34 = load i32, ptr %4, align 4, !tbaa !11
  %35 = ashr i32 %34, 9
  %36 = and i32 %35, 31
  %37 = add nsw i32 %33, %36
  %38 = sext i32 %37 to i64
  %39 = getelementptr inbounds i16, ptr %25, i64 %38
  %40 = load i16, ptr %39, align 2, !tbaa !43
  %41 = zext i16 %40 to i32
  store i32 %41, ptr %6, align 4, !tbaa !11
  call void @llvm.lifetime.start.p0(i64 4, ptr %7) #9
  %42 = load i32, ptr %4, align 4, !tbaa !11
  %43 = ashr i32 %42, 4
  %44 = and i32 %43, 31
  store i32 %44, ptr %7, align 4, !tbaa !11
  call void @llvm.lifetime.start.p0(i64 4, ptr %8) #9
  %45 = load i32, ptr %6, align 4, !tbaa !11
  %46 = and i32 %45, 32768
  %47 = icmp eq i32 %46, 0
  br i1 %47, label %48, label %59

48:                                               ; preds = %22
  %49 = load ptr, ptr %3, align 8, !tbaa !38
  %50 = getelementptr inbounds nuw %struct.UCPTrie, ptr %49, i32 0, i32 0
  %51 = load ptr, ptr %50, align 8, !tbaa !41
  %52 = load i32, ptr %6, align 4, !tbaa !11
  %53 = load i32, ptr %7, align 4, !tbaa !11
  %54 = add nsw i32 %52, %53
  %55 = sext i32 %54 to i64
  %56 = getelementptr inbounds i16, ptr %51, i64 %55
  %57 = load i16, ptr %56, align 2, !tbaa !43
  %58 = zext i16 %57 to i32
  store i32 %58, ptr %8, align 4, !tbaa !11
  br label %96

59:                                               ; preds = %22
  %60 = load i32, ptr %6, align 4, !tbaa !11
  %61 = and i32 %60, 32767
  %62 = load i32, ptr %7, align 4, !tbaa !11
  %63 = and i32 %62, -8
  %64 = add nsw i32 %61, %63
  %65 = load i32, ptr %7, align 4, !tbaa !11
  %66 = ashr i32 %65, 3
  %67 = add nsw i32 %64, %66
  store i32 %67, ptr %6, align 4, !tbaa !11
  %68 = load i32, ptr %7, align 4, !tbaa !11
  %69 = and i32 %68, 7
  store i32 %69, ptr %7, align 4, !tbaa !11
  %70 = load ptr, ptr %3, align 8, !tbaa !38
  %71 = getelementptr inbounds nuw %struct.UCPTrie, ptr %70, i32 0, i32 0
  %72 = load ptr, ptr %71, align 8, !tbaa !41
  %73 = load i32, ptr %6, align 4, !tbaa !11
  %74 = add nsw i32 %73, 1
  store i32 %74, ptr %6, align 4, !tbaa !11
  %75 = sext i32 %73 to i64
  %76 = getelementptr inbounds i16, ptr %72, i64 %75
  %77 = load i16, ptr %76, align 2, !tbaa !43
  %78 = zext i16 %77 to i32
  %79 = load i32, ptr %7, align 4, !tbaa !11
  %80 = mul nsw i32 2, %79
  %81 = add nsw i32 2, %80
  %82 = shl i32 %78, %81
  %83 = and i32 %82, 196608
  store i32 %83, ptr %8, align 4, !tbaa !11
  %84 = load ptr, ptr %3, align 8, !tbaa !38
  %85 = getelementptr inbounds nuw %struct.UCPTrie, ptr %84, i32 0, i32 0
  %86 = load ptr, ptr %85, align 8, !tbaa !41
  %87 = load i32, ptr %6, align 4, !tbaa !11
  %88 = load i32, ptr %7, align 4, !tbaa !11
  %89 = add nsw i32 %87, %88
  %90 = sext i32 %89 to i64
  %91 = getelementptr inbounds i16, ptr %86, i64 %90
  %92 = load i16, ptr %91, align 2, !tbaa !43
  %93 = zext i16 %92 to i32
  %94 = load i32, ptr %8, align 4, !tbaa !11
  %95 = or i32 %94, %93
  store i32 %95, ptr %8, align 4, !tbaa !11
  br label %96

96:                                               ; preds = %59, %48
  %97 = load i32, ptr %8, align 4, !tbaa !11
  %98 = load i32, ptr %4, align 4, !tbaa !11
  %99 = and i32 %98, 15
  %100 = add nsw i32 %97, %99
  call void @llvm.lifetime.end.p0(i64 4, ptr %8) #9
  call void @llvm.lifetime.end.p0(i64 4, ptr %7) #9
  call void @llvm.lifetime.end.p0(i64 4, ptr %6) #9
  call void @llvm.lifetime.end.p0(i64 4, ptr %5) #9
  ret i32 %100
}

; Function Attrs: mustprogress uwtable
define i32 @ucptrie_get_77(ptr noundef %0, i32 noundef %1) #0 {
  %3 = alloca ptr, align 8
  %4 = alloca i32, align 4
  %5 = alloca i32, align 4
  %6 = alloca i32, align 4
  %7 = alloca %union.UCPTrieData, align 8
  store ptr %0, ptr %3, align 8, !tbaa !38
  store i32 %1, ptr %4, align 4, !tbaa !11
  call void @llvm.lifetime.start.p0(i64 4, ptr %5) #9
  %8 = load i32, ptr %4, align 4, !tbaa !11
  %9 = icmp ule i32 %8, 127
  br i1 %9, label %10, label %12

10:                                               ; preds = %2
  %11 = load i32, ptr %4, align 4, !tbaa !11
  store i32 %11, ptr %5, align 4, !tbaa !11
  br label %64

12:                                               ; preds = %2
  call void @llvm.lifetime.start.p0(i64 4, ptr %6) #9
  %13 = load ptr, ptr %3, align 8, !tbaa !38
  %14 = getelementptr inbounds nuw %struct.UCPTrie, ptr %13, i32 0, i32 6
  %15 = load i8, ptr %14, align 2, !tbaa !36
  %16 = sext i8 %15 to i32
  %17 = icmp eq i32 %16, 0
  %18 = select i1 %17, i32 65535, i32 4095
  store i32 %18, ptr %6, align 4, !tbaa !11
  %19 = load i32, ptr %4, align 4, !tbaa !11
  %20 = load i32, ptr %6, align 4, !tbaa !11
  %21 = icmp ule i32 %19, %20
  br i1 %21, label %22, label %35

22:                                               ; preds = %12
  %23 = load ptr, ptr %3, align 8, !tbaa !38
  %24 = getelementptr inbounds nuw %struct.UCPTrie, ptr %23, i32 0, i32 0
  %25 = load ptr, ptr %24, align 8, !tbaa !41
  %26 = load i32, ptr %4, align 4, !tbaa !11
  %27 = ashr i32 %26, 6
  %28 = sext i32 %27 to i64
  %29 = getelementptr inbounds i16, ptr %25, i64 %28
  %30 = load i16, ptr %29, align 2, !tbaa !43
  %31 = zext i16 %30 to i32
  %32 = load i32, ptr %4, align 4, !tbaa !11
  %33 = and i32 %32, 63
  %34 = add nsw i32 %31, %33
  br label %62

35:                                               ; preds = %12
  %36 = load i32, ptr %4, align 4, !tbaa !11
  %37 = icmp ule i32 %36, 1114111
  br i1 %37, label %38, label %55

38:                                               ; preds = %35
  %39 = load i32, ptr %4, align 4, !tbaa !11
  %40 = load ptr, ptr %3, align 8, !tbaa !38
  %41 = getelementptr inbounds nuw %struct.UCPTrie, ptr %40, i32 0, i32 4
  %42 = load i32, ptr %41, align 8, !tbaa !34
  %43 = icmp sge i32 %39, %42
  br i1 %43, label %44, label %49

44:                                               ; preds = %38
  %45 = load ptr, ptr %3, align 8, !tbaa !38
  %46 = getelementptr inbounds nuw %struct.UCPTrie, ptr %45, i32 0, i32 3
  %47 = load i32, ptr %46, align 4, !tbaa !28
  %48 = sub nsw i32 %47, 2
  br label %53

49:                                               ; preds = %38
  %50 = load ptr, ptr %3, align 8, !tbaa !38
  %51 = load i32, ptr %4, align 4, !tbaa !11
  %52 = call i32 @ucptrie_internalSmallIndex_77(ptr noundef %50, i32 noundef %51)
  br label %53

53:                                               ; preds = %49, %44
  %54 = phi i32 [ %48, %44 ], [ %52, %49 ]
  br label %60

55:                                               ; preds = %35
  %56 = load ptr, ptr %3, align 8, !tbaa !38
  %57 = getelementptr inbounds nuw %struct.UCPTrie, ptr %56, i32 0, i32 3
  %58 = load i32, ptr %57, align 4, !tbaa !28
  %59 = sub nsw i32 %58, 1
  br label %60

60:                                               ; preds = %55, %53
  %61 = phi i32 [ %54, %53 ], [ %59, %55 ]
  br label %62

62:                                               ; preds = %60, %22
  %63 = phi i32 [ %34, %22 ], [ %61, %60 ]
  store i32 %63, ptr %5, align 4, !tbaa !11
  call void @llvm.lifetime.end.p0(i64 4, ptr %6) #9
  br label %64

64:                                               ; preds = %62, %10
  %65 = load ptr, ptr %3, align 8, !tbaa !38
  %66 = getelementptr inbounds nuw %struct.UCPTrie, ptr %65, i32 0, i32 1
  call void @llvm.memcpy.p0.p0.i64(ptr align 8 %7, ptr align 8 %66, i64 8, i1 false), !tbaa.struct !47
  %67 = load ptr, ptr %3, align 8, !tbaa !38
  %68 = getelementptr inbounds nuw %struct.UCPTrie, ptr %67, i32 0, i32 7
  %69 = load i8, ptr %68, align 1, !tbaa !37
  %70 = sext i8 %69 to i32
  %71 = load i32, ptr %5, align 4, !tbaa !11
  %72 = getelementptr inbounds nuw %union.UCPTrieData, ptr %7, i32 0, i32 0
  %73 = load ptr, ptr %72, align 8
  %74 = call noundef i32 @_ZN12_GLOBAL__N_18getValueE11UCPTrieData17UCPTrieValueWidthi(ptr %73, i32 noundef %70, i32 noundef %71)
  call void @llvm.lifetime.end.p0(i64 4, ptr %5) #9
  ret i32 %74
}