; Function Attrs: mustprogress nofree norecurse nosync nounwind willreturn memory(read, inaccessiblemem: none) uwtable
define i32 @ucptrie_get_77(ptr noundef readonly captures(none) %0, i32 noundef %1) local_unnamed_addr #7 {
  %3 = icmp ult i32 %1, 128
  br i1 %3, label %78, label %4

4:                                                ; preds = %2
  %5 = getelementptr inbounds nuw i8, ptr %0, i64 30
  %6 = load i8, ptr %5, align 2, !tbaa !25
  %7 = icmp eq i8 %6, 0
  %8 = select i1 %7, i32 65535, i32 4095
  %.not = icmp ugt i32 %1, %8
  br i1 %.not, label %18, label %9

9:                                                ; preds = %4
  %10 = load ptr, ptr %0, align 8, !tbaa !17
  %11 = lshr i32 %1, 6
  %12 = zext nneg i32 %11 to i64
  %13 = getelementptr inbounds nuw i16, ptr %10, i64 %12
  %14 = load i16, ptr %13, align 2, !tbaa !22
  %15 = zext i16 %14 to i32
  %16 = and i32 %1, 63
  %17 = add nuw nsw i32 %16, %15
  br label %78

18:                                               ; preds = %4
  %19 = icmp ult i32 %1, 1114112
  br i1 %19, label %20, label %74

20:                                               ; preds = %18
  %21 = getelementptr inbounds nuw i8, ptr %0, i64 24
  %22 = load i32, ptr %21, align 8, !tbaa !27
  %.not18 = icmp slt i32 %1, %22
  br i1 %.not18, label %27, label %23

23:                                               ; preds = %20
  %24 = getelementptr inbounds nuw i8, ptr %0, i64 20
  %25 = load i32, ptr %24, align 4, !tbaa !28
  %26 = add nsw i32 %25, -2
  br label %78

27:                                               ; preds = %20
  %28 = lshr i32 %1, 14
  %.025.v.i = select i1 %7, i32 1020, i32 64
  %.025.i = add nuw nsw i32 %.025.v.i, %28
  %29 = load ptr, ptr %0, align 8, !tbaa !17
  %30 = zext nneg i32 %.025.i to i64
  %31 = getelementptr inbounds nuw i16, ptr %29, i64 %30
  %32 = load i16, ptr %31, align 2, !tbaa !22
  %33 = zext i16 %32 to i32
  %34 = lshr i32 %1, 9
  %35 = and i32 %34, 31
  %36 = add nuw nsw i32 %35, %33
  %37 = zext nneg i32 %36 to i64
  %38 = getelementptr inbounds nuw i16, ptr %29, i64 %37
  %39 = load i16, ptr %38, align 2, !tbaa !22
  %40 = zext i16 %39 to i32
  %41 = lshr i32 %1, 4
  %42 = and i32 %41, 31
  %43 = icmp sgt i16 %39, -1
  br i1 %43, label %44, label %50

44:                                               ; preds = %27
  %45 = add nuw nsw i32 %42, %40
  %46 = zext nneg i32 %45 to i64
  %47 = getelementptr inbounds nuw i16, ptr %29, i64 %46
  %48 = load i16, ptr %47, align 2, !tbaa !22
  %49 = zext i16 %48 to i32
  br label %ucptrie_internalSmallIndex_77.exit

50:                                               ; preds = %27
  %51 = and i32 %40, 32767
  %52 = and i32 %41, 24
  %53 = lshr i32 %42, 3
  %54 = or disjoint i32 %53, %52
  %55 = add nuw nsw i32 %51, %54
  %56 = and i32 %41, 7
  %57 = zext nneg i32 %55 to i64
  %58 = getelementptr inbounds nuw i16, ptr %29, i64 %57
  %59 = load i16, ptr %58, align 2, !tbaa !22
  %60 = zext i16 %59 to i32
  %61 = shl nuw nsw i32 %56, 1
  %62 = add nuw nsw i32 %61, 2
  %63 = shl nuw i32 %60, %62
  %64 = and i32 %63, 196608
  %65 = add nuw nsw i32 %56, 1
  %66 = add nuw nsw i32 %65, %55
  %67 = zext nneg i32 %66 to i64
  %68 = getelementptr inbounds nuw i16, ptr %29, i64 %67
  %69 = load i16, ptr %68, align 2, !tbaa !22
  %70 = zext i16 %69 to i32
  %71 = or disjoint i32 %64, %70
  br label %ucptrie_internalSmallIndex_77.exit

ucptrie_internalSmallIndex_77.exit:               ; preds = %44, %50
  %.0.i = phi i32 [ %49, %44 ], [ %71, %50 ]
  %72 = and i32 %1, 15
  %73 = add nuw nsw i32 %.0.i, %72
  br label %78

74:                                               ; preds = %18
  %75 = getelementptr inbounds nuw i8, ptr %0, i64 20
  %76 = load i32, ptr %75, align 4, !tbaa !28
  %77 = add nsw i32 %76, -1
  br label %78

78:                                               ; preds = %9, %23, %ucptrie_internalSmallIndex_77.exit, %74, %2
  %.0 = phi i32 [ %1, %2 ], [ %17, %9 ], [ %77, %74 ], [ %26, %23 ], [ %73, %ucptrie_internalSmallIndex_77.exit ]
  %79 = getelementptr inbounds nuw i8, ptr %0, i64 8
  %.sroa.0.0.copyload = load ptr, ptr %79, align 8, !tbaa !21
  %80 = getelementptr inbounds nuw i8, ptr %0, i64 31
  %81 = load i8, ptr %80, align 1, !tbaa !26
  switch i8 %81, label %_ZN12_GLOBAL__N_18getValueE11UCPTrieData17UCPTrieValueWidthi.exit [
    i8 0, label %82
    i8 1, label %87
    i8 2, label %91
  ]

82:                                               ; preds = %78
  %83 = sext i32 %.0 to i64
  %84 = getelementptr inbounds i16, ptr %.sroa.0.0.copyload, i64 %83
  %85 = load i16, ptr %84, align 2, !tbaa !22
  %86 = zext i16 %85 to i32
  br label %_ZN12_GLOBAL__N_18getValueE11UCPTrieData17UCPTrieValueWidthi.exit

87:                                               ; preds = %78
  %88 = sext i32 %.0 to i64
  %89 = getelementptr inbounds i32, ptr %.sroa.0.0.copyload, i64 %88
  %90 = load i32, ptr %89, align 4, !tbaa !23
  br label %_ZN12_GLOBAL__N_18getValueE11UCPTrieData17UCPTrieValueWidthi.exit

91:                                               ; preds = %78
  %92 = sext i32 %.0 to i64
  %93 = getelementptr inbounds i8, ptr %.sroa.0.0.copyload, i64 %92
  %94 = load i8, ptr %93, align 1, !tbaa !21
  %95 = zext i8 %94 to i32
  br label %_ZN12_GLOBAL__N_18getValueE11UCPTrieData17UCPTrieValueWidthi.exit

_ZN12_GLOBAL__N_18getValueE11UCPTrieData17UCPTrieValueWidthi.exit: ; preds = %78, %82, %87, %91
  %.0.i19 = phi i32 [ %95, %91 ], [ %90, %87 ], [ %86, %82 ], [ -1, %78 ]
  ret i32 %.0.i19
}